; Function Attrs: mustprogress uwtable
define void @_ZN3zmq6pipe_t19send_disconnect_msgEv(ptr noundef nonnull align 8 dereferenceable(328) %0) local_unnamed_addr #0 align 2 {
  %2 = getelementptr inbounds nuw i8, ptr %0, i64 264
  %3 = tail call noundef i64 @_ZNK3zmq5msg_t4sizeEv(ptr noundef nonnull align 8 dereferenceable(64) %2)
  %.not = icmp eq i64 %3, 0
  br i1 %.not, label %26, label %4

4:                                                ; preds = %1
  %5 = getelementptr inbounds nuw i8, ptr %0, i64 80
  %6 = load ptr, ptr %5, align 8, !tbaa !103
  %.not1 = icmp eq ptr %6, null
  br i1 %.not1, label %26, label %7

7:                                                ; preds = %4
  tail call void @_ZNK3zmq6pipe_t8rollbackEv(ptr noundef nonnull align 8 dereferenceable(328) %0)
  %8 = load ptr, ptr %5, align 8, !tbaa !103
  %9 = load ptr, ptr %8, align 8, !tbaa !9
  %10 = getelementptr inbounds nuw i8, ptr %9, i64 16
  %11 = load ptr, ptr %10, align 8
  tail call void %11(ptr noundef nonnull align 8 dereferenceable(8) %8, ptr noundef nonnull align 8 dereferenceable(64) %2, i1 noundef zeroext false)
  %12 = getelementptr inbounds nuw i8, ptr %0, i64 152
  %13 = load i32, ptr %12, align 8, !tbaa !105
  %14 = icmp eq i32 %13, 3
  br i1 %14, label %_ZN3zmq6pipe_t5flushEv.exit, label %15

15:                                               ; preds = %7
  %16 = load ptr, ptr %5, align 8, !tbaa !103
  %.not.i = icmp eq ptr %16, null
  br i1 %.not.i, label %_ZN3zmq6pipe_t5flushEv.exit, label %17

17:                                               ; preds = %15
  %18 = load ptr, ptr %16, align 8, !tbaa !9
  %19 = getelementptr inbounds nuw i8, ptr %18, i64 32
  %20 = load ptr, ptr %19, align 8
  %21 = tail call noundef zeroext i1 %20(ptr noundef nonnull align 8 dereferenceable(8) %16)
  br i1 %21, label %_ZN3zmq6pipe_t5flushEv.exit, label %22

22:                                               ; preds = %17
  %23 = getelementptr inbounds nuw i8, ptr %0, i64 136
  %24 = load ptr, ptr %23, align 8, !tbaa !29
  tail call void @_ZN3zmq8object_t18send_activate_readEPNS_6pipe_tE(ptr noundef nonnull align 8 dereferenceable(328) %0, ptr noundef %24)
  br label %_ZN3zmq6pipe_t5flushEv.exit

_ZN3zmq6pipe_t5flushEv.exit:                      ; preds = %7, %15, %17, %22
  %25 = tail call noundef i32 @_ZN3zmq5msg_t4initEv(ptr noundef nonnull align 8 dereferenceable(64) %2)
  br label %26

26:                                               ; preds = %_ZN3zmq6pipe_t5flushEv.exit, %4, %1
  ret void
}